
user/_stressfs:     file format elf64-littleriscv


Disassembly of section .text:

0000000000000000 <main>:
#include "kernel/fs.h"
#include "kernel/fcntl.h"

int
main(int argc, char *argv[])
{
   0:	dd010113          	addi	sp,sp,-560
   4:	22113423          	sd	ra,552(sp)
   8:	22813023          	sd	s0,544(sp)
   c:	20913c23          	sd	s1,536(sp)
  10:	21213823          	sd	s2,528(sp)
  14:	1c00                	addi	s0,sp,560
  int fd, i;
  char path[] = "stressfs0";
  16:	00001797          	auipc	a5,0x1
  1a:	94a78793          	addi	a5,a5,-1718 # 960 <malloc+0x132>
  1e:	6398                	ld	a4,0(a5)
  20:	fce43823          	sd	a4,-48(s0)
  24:	0087d783          	lhu	a5,8(a5)
  28:	fcf41c23          	sh	a5,-40(s0)
  char data[512];

  printf("stressfs starting\n");
  2c:	00001517          	auipc	a0,0x1
  30:	90450513          	addi	a0,a0,-1788 # 930 <malloc+0x102>
  34:	746000ef          	jal	77a <printf>
  memset(data, 'a', sizeof(data));
  38:	20000613          	li	a2,512
  3c:	06100593          	li	a1,97
  40:	dd040513          	addi	a0,s0,-560
  44:	118000ef          	jal	15c <memset>

  for(i = 0; i < 4; i++)
  48:	4481                	li	s1,0
  4a:	4911                	li	s2,4
    if(fork() > 0)
  4c:	2ee000ef          	jal	33a <fork>
  50:	00a04563          	bgtz	a0,5a <main+0x5a>
  for(i = 0; i < 4; i++)
  54:	2485                	addiw	s1,s1,1
  56:	ff249be3          	bne	s1,s2,4c <main+0x4c>
      break;

  printf("write %d\n", i);
  5a:	85a6                	mv	a1,s1
  5c:	00001517          	auipc	a0,0x1
  60:	8ec50513          	addi	a0,a0,-1812 # 948 <malloc+0x11a>
  64:	716000ef          	jal	77a <printf>

  path[8] += i;
  68:	fd844783          	lbu	a5,-40(s0)
  6c:	9fa5                	addw	a5,a5,s1
  6e:	fcf40c23          	sb	a5,-40(s0)
  fd = open(path, O_CREATE | O_RDWR);
  72:	20200593          	li	a1,514
  76:	fd040513          	addi	a0,s0,-48
  7a:	308000ef          	jal	382 <open>
  7e:	892a                	mv	s2,a0
  80:	44d1                	li	s1,20
  for(i = 0; i < 20; i++)
//    printf(fd, "%d\n", i);
    write(fd, data, sizeof(data));
  82:	20000613          	li	a2,512
  86:	dd040593          	addi	a1,s0,-560
  8a:	854a                	mv	a0,s2
  8c:	2d6000ef          	jal	362 <write>
  for(i = 0; i < 20; i++)
  90:	34fd                	addiw	s1,s1,-1
  92:	f8e5                	bnez	s1,82 <main+0x82>
  close(fd);
  94:	854a                	mv	a0,s2
  96:	2d4000ef          	jal	36a <close>

  printf("read\n");
  9a:	00001517          	auipc	a0,0x1
  9e:	8be50513          	addi	a0,a0,-1858 # 958 <malloc+0x12a>
  a2:	6d8000ef          	jal	77a <printf>

  fd = open(path, O_RDONLY);
  a6:	4581                	li	a1,0
  a8:	fd040513          	addi	a0,s0,-48
  ac:	2d6000ef          	jal	382 <open>
  b0:	892a                	mv	s2,a0
  b2:	44d1                	li	s1,20
  for (i = 0; i < 20; i++)
    read(fd, data, sizeof(data));
  b4:	20000613          	li	a2,512
  b8:	dd040593          	addi	a1,s0,-560
  bc:	854a                	mv	a0,s2
  be:	29c000ef          	jal	35a <read>
  for (i = 0; i < 20; i++)
  c2:	34fd                	addiw	s1,s1,-1
  c4:	f8e5                	bnez	s1,b4 <main+0xb4>
  close(fd);
  c6:	854a                	mv	a0,s2
  c8:	2a2000ef          	jal	36a <close>

  wait(0);
  cc:	4501                	li	a0,0
  ce:	27c000ef          	jal	34a <wait>

  exit(0);
  d2:	4501                	li	a0,0
  d4:	26e000ef          	jal	342 <exit>

00000000000000d8 <start>:
  d8:	1141                	addi	sp,sp,-16
  da:	e406                	sd	ra,8(sp)
  dc:	e022                	sd	s0,0(sp)
  de:	0800                	addi	s0,sp,16
  e0:	f21ff0ef          	jal	0 <main>
  e4:	4501                	li	a0,0
  e6:	25c000ef          	jal	342 <exit>

00000000000000ea <strcpy>:
  ea:	1141                	addi	sp,sp,-16
  ec:	e422                	sd	s0,8(sp)
  ee:	0800                	addi	s0,sp,16
  f0:	87aa                	mv	a5,a0
  f2:	0585                	addi	a1,a1,1
  f4:	0785                	addi	a5,a5,1
  f6:	fff5c703          	lbu	a4,-1(a1)
  fa:	fee78fa3          	sb	a4,-1(a5)
  fe:	fb75                	bnez	a4,f2 <strcpy+0x8>
 100:	6422                	ld	s0,8(sp)
 102:	0141                	addi	sp,sp,16
 104:	8082                	ret

0000000000000106 <strcmp>:
 106:	1141                	addi	sp,sp,-16
 108:	e422                	sd	s0,8(sp)
 10a:	0800                	addi	s0,sp,16
 10c:	00054783          	lbu	a5,0(a0)
 110:	cb91                	beqz	a5,124 <strcmp+0x1e>
 112:	0005c703          	lbu	a4,0(a1)
 116:	00f71763          	bne	a4,a5,124 <strcmp+0x1e>
 11a:	0505                	addi	a0,a0,1
 11c:	0585                	addi	a1,a1,1
 11e:	00054783          	lbu	a5,0(a0)
 122:	fbe5                	bnez	a5,112 <strcmp+0xc>
 124:	0005c503          	lbu	a0,0(a1)
 128:	40a7853b          	subw	a0,a5,a0
 12c:	6422                	ld	s0,8(sp)
 12e:	0141                	addi	sp,sp,16
 130:	8082                	ret

0000000000000132 <strlen>:
 132:	1141                	addi	sp,sp,-16
 134:	e422                	sd	s0,8(sp)
 136:	0800                	addi	s0,sp,16
 138:	00054783          	lbu	a5,0(a0)
 13c:	cf91                	beqz	a5,158 <strlen+0x26>
 13e:	0505                	addi	a0,a0,1
 140:	87aa                	mv	a5,a0
 142:	86be                	mv	a3,a5
 144:	0785                	addi	a5,a5,1
 146:	fff7c703          	lbu	a4,-1(a5)
 14a:	ff65                	bnez	a4,142 <strlen+0x10>
 14c:	40a6853b          	subw	a0,a3,a0
 150:	2505                	addiw	a0,a0,1
 152:	6422                	ld	s0,8(sp)
 154:	0141                	addi	sp,sp,16
 156:	8082                	ret
 158:	4501                	li	a0,0
 15a:	bfe5                	j	152 <strlen+0x20>

000000000000015c <memset>:
 15c:	1141                	addi	sp,sp,-16
 15e:	e422                	sd	s0,8(sp)
 160:	0800                	addi	s0,sp,16
 162:	ca19                	beqz	a2,178 <memset+0x1c>
 164:	87aa                	mv	a5,a0
 166:	1602                	slli	a2,a2,0x20
 168:	9201                	srli	a2,a2,0x20
 16a:	00a60733          	add	a4,a2,a0
 16e:	00b78023          	sb	a1,0(a5)
 172:	0785                	addi	a5,a5,1
 174:	fee79de3          	bne	a5,a4,16e <memset+0x12>
 178:	6422                	ld	s0,8(sp)
 17a:	0141                	addi	sp,sp,16
 17c:	8082                	ret

000000000000017e <strchr>:
 17e:	1141                	addi	sp,sp,-16
 180:	e422                	sd	s0,8(sp)
 182:	0800                	addi	s0,sp,16
 184:	00054783          	lbu	a5,0(a0)
 188:	cb99                	beqz	a5,19e <strchr+0x20>
 18a:	00f58763          	beq	a1,a5,198 <strchr+0x1a>
 18e:	0505                	addi	a0,a0,1
 190:	00054783          	lbu	a5,0(a0)
 194:	fbfd                	bnez	a5,18a <strchr+0xc>
 196:	4501                	li	a0,0
 198:	6422                	ld	s0,8(sp)
 19a:	0141                	addi	sp,sp,16
 19c:	8082                	ret
 19e:	4501                	li	a0,0
 1a0:	bfe5                	j	198 <strchr+0x1a>

00000000000001a2 <gets>:
 1a2:	711d                	addi	sp,sp,-96
 1a4:	ec86                	sd	ra,88(sp)
 1a6:	e8a2                	sd	s0,80(sp)
 1a8:	e4a6                	sd	s1,72(sp)
 1aa:	e0ca                	sd	s2,64(sp)
 1ac:	fc4e                	sd	s3,56(sp)
 1ae:	f852                	sd	s4,48(sp)
 1b0:	f456                	sd	s5,40(sp)
 1b2:	f05a                	sd	s6,32(sp)
 1b4:	ec5e                	sd	s7,24(sp)
 1b6:	1080                	addi	s0,sp,96
 1b8:	8baa                	mv	s7,a0
 1ba:	8a2e                	mv	s4,a1
 1bc:	892a                	mv	s2,a0
 1be:	4481                	li	s1,0
 1c0:	4aa9                	li	s5,10
 1c2:	4b35                	li	s6,13
 1c4:	89a6                	mv	s3,s1
 1c6:	2485                	addiw	s1,s1,1
 1c8:	0344d663          	bge	s1,s4,1f4 <gets+0x52>
 1cc:	4605                	li	a2,1
 1ce:	faf40593          	addi	a1,s0,-81
 1d2:	4501                	li	a0,0
 1d4:	186000ef          	jal	35a <read>
 1d8:	00a05e63          	blez	a0,1f4 <gets+0x52>
 1dc:	faf44783          	lbu	a5,-81(s0)
 1e0:	00f90023          	sb	a5,0(s2)
 1e4:	01578763          	beq	a5,s5,1f2 <gets+0x50>
 1e8:	0905                	addi	s2,s2,1
 1ea:	fd679de3          	bne	a5,s6,1c4 <gets+0x22>
 1ee:	89a6                	mv	s3,s1
 1f0:	a011                	j	1f4 <gets+0x52>
 1f2:	89a6                	mv	s3,s1
 1f4:	99de                	add	s3,s3,s7
 1f6:	00098023          	sb	zero,0(s3)
 1fa:	855e                	mv	a0,s7
 1fc:	60e6                	ld	ra,88(sp)
 1fe:	6446                	ld	s0,80(sp)
 200:	64a6                	ld	s1,72(sp)
 202:	6906                	ld	s2,64(sp)
 204:	79e2                	ld	s3,56(sp)
 206:	7a42                	ld	s4,48(sp)
 208:	7aa2                	ld	s5,40(sp)
 20a:	7b02                	ld	s6,32(sp)
 20c:	6be2                	ld	s7,24(sp)
 20e:	6125                	addi	sp,sp,96
 210:	8082                	ret

0000000000000212 <stat>:
 212:	1101                	addi	sp,sp,-32
 214:	ec06                	sd	ra,24(sp)
 216:	e822                	sd	s0,16(sp)
 218:	e04a                	sd	s2,0(sp)
 21a:	1000                	addi	s0,sp,32
 21c:	892e                	mv	s2,a1
 21e:	4581                	li	a1,0
 220:	162000ef          	jal	382 <open>
 224:	02054263          	bltz	a0,248 <stat+0x36>
 228:	e426                	sd	s1,8(sp)
 22a:	84aa                	mv	s1,a0
 22c:	85ca                	mv	a1,s2
 22e:	16c000ef          	jal	39a <fstat>
 232:	892a                	mv	s2,a0
 234:	8526                	mv	a0,s1
 236:	134000ef          	jal	36a <close>
 23a:	64a2                	ld	s1,8(sp)
 23c:	854a                	mv	a0,s2
 23e:	60e2                	ld	ra,24(sp)
 240:	6442                	ld	s0,16(sp)
 242:	6902                	ld	s2,0(sp)
 244:	6105                	addi	sp,sp,32
 246:	8082                	ret
 248:	597d                	li	s2,-1
 24a:	bfcd                	j	23c <stat+0x2a>

000000000000024c <atoi>:
 24c:	1141                	addi	sp,sp,-16
 24e:	e422                	sd	s0,8(sp)
 250:	0800                	addi	s0,sp,16
 252:	00054683          	lbu	a3,0(a0)
 256:	fd06879b          	addiw	a5,a3,-48
 25a:	0ff7f793          	zext.b	a5,a5
 25e:	4625                	li	a2,9
 260:	02f66863          	bltu	a2,a5,290 <atoi+0x44>
 264:	872a                	mv	a4,a0
 266:	4501                	li	a0,0
 268:	0705                	addi	a4,a4,1
 26a:	0025179b          	slliw	a5,a0,0x2
 26e:	9fa9                	addw	a5,a5,a0
 270:	0017979b          	slliw	a5,a5,0x1
 274:	9fb5                	addw	a5,a5,a3
 276:	fd07851b          	addiw	a0,a5,-48
 27a:	00074683          	lbu	a3,0(a4)
 27e:	fd06879b          	addiw	a5,a3,-48
 282:	0ff7f793          	zext.b	a5,a5
 286:	fef671e3          	bgeu	a2,a5,268 <atoi+0x1c>
 28a:	6422                	ld	s0,8(sp)
 28c:	0141                	addi	sp,sp,16
 28e:	8082                	ret
 290:	4501                	li	a0,0
 292:	bfe5                	j	28a <atoi+0x3e>

0000000000000294 <memmove>:
 294:	1141                	addi	sp,sp,-16
 296:	e422                	sd	s0,8(sp)
 298:	0800                	addi	s0,sp,16
 29a:	02b57463          	bgeu	a0,a1,2c2 <memmove+0x2e>
 29e:	00c05f63          	blez	a2,2bc <memmove+0x28>
 2a2:	1602                	slli	a2,a2,0x20
 2a4:	9201                	srli	a2,a2,0x20
 2a6:	00c507b3          	add	a5,a0,a2
 2aa:	872a                	mv	a4,a0
 2ac:	0585                	addi	a1,a1,1
 2ae:	0705                	addi	a4,a4,1
 2b0:	fff5c683          	lbu	a3,-1(a1)
 2b4:	fed70fa3          	sb	a3,-1(a4)
 2b8:	fef71ae3          	bne	a4,a5,2ac <memmove+0x18>
 2bc:	6422                	ld	s0,8(sp)
 2be:	0141                	addi	sp,sp,16
 2c0:	8082                	ret
 2c2:	00c50733          	add	a4,a0,a2
 2c6:	95b2                	add	a1,a1,a2
 2c8:	fec05ae3          	blez	a2,2bc <memmove+0x28>
 2cc:	fff6079b          	addiw	a5,a2,-1
 2d0:	1782                	slli	a5,a5,0x20
 2d2:	9381                	srli	a5,a5,0x20
 2d4:	fff7c793          	not	a5,a5
 2d8:	97ba                	add	a5,a5,a4
 2da:	15fd                	addi	a1,a1,-1
 2dc:	177d                	addi	a4,a4,-1
 2de:	0005c683          	lbu	a3,0(a1)
 2e2:	00d70023          	sb	a3,0(a4)
 2e6:	fee79ae3          	bne	a5,a4,2da <memmove+0x46>
 2ea:	bfc9                	j	2bc <memmove+0x28>

00000000000002ec <memcmp>:
 2ec:	1141                	addi	sp,sp,-16
 2ee:	e422                	sd	s0,8(sp)
 2f0:	0800                	addi	s0,sp,16
 2f2:	ca05                	beqz	a2,322 <memcmp+0x36>
 2f4:	fff6069b          	addiw	a3,a2,-1
 2f8:	1682                	slli	a3,a3,0x20
 2fa:	9281                	srli	a3,a3,0x20
 2fc:	0685                	addi	a3,a3,1
 2fe:	96aa                	add	a3,a3,a0
 300:	00054783          	lbu	a5,0(a0)
 304:	0005c703          	lbu	a4,0(a1)
 308:	00e79863          	bne	a5,a4,318 <memcmp+0x2c>
 30c:	0505                	addi	a0,a0,1
 30e:	0585                	addi	a1,a1,1
 310:	fed518e3          	bne	a0,a3,300 <memcmp+0x14>
 314:	4501                	li	a0,0
 316:	a019                	j	31c <memcmp+0x30>
 318:	40e7853b          	subw	a0,a5,a4
 31c:	6422                	ld	s0,8(sp)
 31e:	0141                	addi	sp,sp,16
 320:	8082                	ret
 322:	4501                	li	a0,0
 324:	bfe5                	j	31c <memcmp+0x30>

0000000000000326 <memcpy>:
 326:	1141                	addi	sp,sp,-16
 328:	e406                	sd	ra,8(sp)
 32a:	e022                	sd	s0,0(sp)
 32c:	0800                	addi	s0,sp,16
 32e:	f67ff0ef          	jal	294 <memmove>
 332:	60a2                	ld	ra,8(sp)
 334:	6402                	ld	s0,0(sp)
 336:	0141                	addi	sp,sp,16
 338:	8082                	ret

000000000000033a <fork>:
 33a:	4885                	li	a7,1
 33c:	00000073          	ecall
 340:	8082                	ret

0000000000000342 <exit>:
 342:	4889                	li	a7,2
 344:	00000073          	ecall
 348:	8082                	ret

000000000000034a <wait>:
 34a:	488d                	li	a7,3
 34c:	00000073          	ecall
 350:	8082                	ret

0000000000000352 <pipe>:
 352:	4891                	li	a7,4
 354:	00000073          	ecall
 358:	8082                	ret

000000000000035a <read>:
 35a:	4895                	li	a7,5
 35c:	00000073          	ecall
 360:	8082                	ret

0000000000000362 <write>:
 362:	48c1                	li	a7,16
 364:	00000073          	ecall
 368:	8082                	ret

000000000000036a <close>:
 36a:	48d5                	li	a7,21
 36c:	00000073          	ecall
 370:	8082                	ret

0000000000000372 <kill>:
 372:	4899                	li	a7,6
 374:	00000073          	ecall
 378:	8082                	ret

000000000000037a <exec>:
 37a:	489d                	li	a7,7
 37c:	00000073          	ecall
 380:	8082                	ret

0000000000000382 <open>:
 382:	48bd                	li	a7,15
 384:	00000073          	ecall
 388:	8082                	ret

000000000000038a <mknod>:
 38a:	48c5                	li	a7,17
 38c:	00000073          	ecall
 390:	8082                	ret

0000000000000392 <unlink>:
 392:	48c9                	li	a7,18
 394:	00000073          	ecall
 398:	8082                	ret

000000000000039a <fstat>:
 39a:	48a1                	li	a7,8
 39c:	00000073          	ecall
 3a0:	8082                	ret

00000000000003a2 <link>:
 3a2:	48cd                	li	a7,19
 3a4:	00000073          	ecall
 3a8:	8082                	ret

00000000000003aa <mkdir>:
 3aa:	48d1                	li	a7,20
 3ac:	00000073          	ecall
 3b0:	8082                	ret

00000000000003b2 <chdir>:
 3b2:	48a5                	li	a7,9
 3b4:	00000073          	ecall
 3b8:	8082                	ret

00000000000003ba <dup>:
 3ba:	48a9                	li	a7,10
 3bc:	00000073          	ecall
 3c0:	8082                	ret

00000000000003c2 <getpid>:
 3c2:	48ad                	li	a7,11
 3c4:	00000073          	ecall
 3c8:	8082                	ret

00000000000003ca <sbrk>:
 3ca:	48b1                	li	a7,12
 3cc:	00000073          	ecall
 3d0:	8082                	ret

00000000000003d2 <sleep>:
 3d2:	48b5                	li	a7,13
 3d4:	00000073          	ecall
 3d8:	8082                	ret

00000000000003da <uptime>:
 3da:	48b9                	li	a7,14
 3dc:	00000073          	ecall
 3e0:	8082                	ret

00000000000003e2 <ps>:
 3e2:	48d9                	li	a7,22
 3e4:	00000073          	ecall
 3e8:	8082                	ret

00000000000003ea <fork2>:
 3ea:	48dd                	li	a7,23
 3ec:	00000073          	ecall
 3f0:	8082                	ret

00000000000003f2 <get_ppid>:
 3f2:	48e1                	li	a7,24
 3f4:	00000073          	ecall
 3f8:	8082                	ret

00000000000003fa <set_perm>:
 3fa:	48e5                	li	a7,25
 3fc:	00000073          	ecall
 400:	8082                	ret

0000000000000402 <putc>:

static char digits[] = "0123456789ABCDEF";

static void
putc(int fd, char c)
{
 402:	1101                	addi	sp,sp,-32
 404:	ec06                	sd	ra,24(sp)
 406:	e822                	sd	s0,16(sp)
 408:	1000                	addi	s0,sp,32
 40a:	feb407a3          	sb	a1,-17(s0)
  write(fd, &c, 1);
 40e:	4605                	li	a2,1
 410:	fef40593          	addi	a1,s0,-17
 414:	f4fff0ef          	jal	362 <write>
}
 418:	60e2                	ld	ra,24(sp)
 41a:	6442                	ld	s0,16(sp)
 41c:	6105                	addi	sp,sp,32
 41e:	8082                	ret

0000000000000420 <printint>:

static void
printint(int fd, int xx, int base, int sgn)
{
 420:	7139                	addi	sp,sp,-64
 422:	fc06                	sd	ra,56(sp)
 424:	f822                	sd	s0,48(sp)
 426:	f426                	sd	s1,40(sp)
 428:	0080                	addi	s0,sp,64
 42a:	84aa                	mv	s1,a0
  char buf[16];
  int i, neg;
  uint x;

  neg = 0;
  if(sgn && xx < 0){
 42c:	c299                	beqz	a3,432 <printint+0x12>
 42e:	0805c963          	bltz	a1,4c0 <printint+0xa0>
    neg = 1;
    x = -xx;
  } else {
    x = xx;
 432:	2581                	sext.w	a1,a1
  neg = 0;
 434:	4881                	li	a7,0
 436:	fc040693          	addi	a3,s0,-64
  }

  i = 0;
 43a:	4701                	li	a4,0
  do{
    buf[i++] = digits[x % base];
 43c:	2601                	sext.w	a2,a2
 43e:	00000517          	auipc	a0,0x0
 442:	53a50513          	addi	a0,a0,1338 # 978 <digits>
 446:	883a                	mv	a6,a4
 448:	2705                	addiw	a4,a4,1
 44a:	02c5f7bb          	remuw	a5,a1,a2
 44e:	1782                	slli	a5,a5,0x20
 450:	9381                	srli	a5,a5,0x20
 452:	97aa                	add	a5,a5,a0
 454:	0007c783          	lbu	a5,0(a5)
 458:	00f68023          	sb	a5,0(a3)
  }while((x /= base) != 0);
 45c:	0005879b          	sext.w	a5,a1
 460:	02c5d5bb          	divuw	a1,a1,a2
 464:	0685                	addi	a3,a3,1
 466:	fec7f0e3          	bgeu	a5,a2,446 <printint+0x26>
  if(neg)
 46a:	00088c63          	beqz	a7,482 <printint+0x62>
    buf[i++] = '-';
 46e:	fd070793          	addi	a5,a4,-48
 472:	00878733          	add	a4,a5,s0
 476:	02d00793          	li	a5,45
 47a:	fef70823          	sb	a5,-16(a4)
 47e:	0028071b          	addiw	a4,a6,2

  while(--i >= 0)
 482:	02e05a63          	blez	a4,4b6 <printint+0x96>
 486:	f04a                	sd	s2,32(sp)
 488:	ec4e                	sd	s3,24(sp)
 48a:	fc040793          	addi	a5,s0,-64
 48e:	00e78933          	add	s2,a5,a4
 492:	fff78993          	addi	s3,a5,-1
 496:	99ba                	add	s3,s3,a4
 498:	377d                	addiw	a4,a4,-1
 49a:	1702                	slli	a4,a4,0x20
 49c:	9301                	srli	a4,a4,0x20
 49e:	40e989b3          	sub	s3,s3,a4
    putc(fd, buf[i]);
 4a2:	fff94583          	lbu	a1,-1(s2)
 4a6:	8526                	mv	a0,s1
 4a8:	f5bff0ef          	jal	402 <putc>
  while(--i >= 0)
 4ac:	197d                	addi	s2,s2,-1
 4ae:	ff391ae3          	bne	s2,s3,4a2 <printint+0x82>
 4b2:	7902                	ld	s2,32(sp)
 4b4:	69e2                	ld	s3,24(sp)
}
 4b6:	70e2                	ld	ra,56(sp)
 4b8:	7442                	ld	s0,48(sp)
 4ba:	74a2                	ld	s1,40(sp)
 4bc:	6121                	addi	sp,sp,64
 4be:	8082                	ret
    x = -xx;
 4c0:	40b005bb          	negw	a1,a1
    neg = 1;
 4c4:	4885                	li	a7,1
    x = -xx;
 4c6:	bf85                	j	436 <printint+0x16>

00000000000004c8 <vprintf>:
}

// Print to the given fd. Only understands %d, %x, %p, %s.
void
vprintf(int fd, const char *fmt, va_list ap)
{
 4c8:	711d                	addi	sp,sp,-96
 4ca:	ec86                	sd	ra,88(sp)
 4cc:	e8a2                	sd	s0,80(sp)
 4ce:	e0ca                	sd	s2,64(sp)
 4d0:	1080                	addi	s0,sp,96
  char *s;
  int c0, c1, c2, i, state;

  state = 0;
  for(i = 0; fmt[i]; i++){
 4d2:	0005c903          	lbu	s2,0(a1)
 4d6:	26090863          	beqz	s2,746 <vprintf+0x27e>
 4da:	e4a6                	sd	s1,72(sp)
 4dc:	fc4e                	sd	s3,56(sp)
 4de:	f852                	sd	s4,48(sp)
 4e0:	f456                	sd	s5,40(sp)
 4e2:	f05a                	sd	s6,32(sp)
 4e4:	ec5e                	sd	s7,24(sp)
 4e6:	e862                	sd	s8,16(sp)
 4e8:	e466                	sd	s9,8(sp)
 4ea:	8b2a                	mv	s6,a0
 4ec:	8a2e                	mv	s4,a1
 4ee:	8bb2                	mv	s7,a2
  state = 0;
 4f0:	4981                	li	s3,0
  for(i = 0; fmt[i]; i++){
 4f2:	4481                	li	s1,0
 4f4:	4701                	li	a4,0
      if(c0 == '%'){
        state = '%';
      } else {
        putc(fd, c0);
      }
    } else if(state == '%'){
 4f6:	02500a93          	li	s5,37
      c1 = c2 = 0;
      if(c0) c1 = fmt[i+1] & 0xff;
      if(c1) c2 = fmt[i+2] & 0xff;
      if(c0 == 'd'){
 4fa:	06400c13          	li	s8,100
        printint(fd, va_arg(ap, int), 10, 1);
      } else if(c0 == 'l' && c1 == 'd'){
 4fe:	06c00c93          	li	s9,108
 502:	a005                	j	522 <vprintf+0x5a>
        putc(fd, c0);
 504:	85ca                	mv	a1,s2
 506:	855a                	mv	a0,s6
 508:	efbff0ef          	jal	402 <putc>
 50c:	a019                	j	512 <vprintf+0x4a>
    } else if(state == '%'){
 50e:	03598263          	beq	s3,s5,532 <vprintf+0x6a>
  for(i = 0; fmt[i]; i++){
 512:	2485                	addiw	s1,s1,1
 514:	8726                	mv	a4,s1
 516:	009a07b3          	add	a5,s4,s1
 51a:	0007c903          	lbu	s2,0(a5)
 51e:	20090c63          	beqz	s2,736 <vprintf+0x26e>
    c0 = fmt[i] & 0xff;
 522:	0009079b          	sext.w	a5,s2
    if(state == 0){
 526:	fe0994e3          	bnez	s3,50e <vprintf+0x46>
      if(c0 == '%'){
 52a:	fd579de3          	bne	a5,s5,504 <vprintf+0x3c>
        state = '%';
 52e:	89be                	mv	s3,a5
 530:	b7cd                	j	512 <vprintf+0x4a>
      if(c0) c1 = fmt[i+1] & 0xff;
 532:	00ea06b3          	add	a3,s4,a4
 536:	0016c683          	lbu	a3,1(a3)
      c1 = c2 = 0;
 53a:	8636                	mv	a2,a3
      if(c1) c2 = fmt[i+2] & 0xff;
 53c:	c681                	beqz	a3,544 <vprintf+0x7c>
 53e:	9752                	add	a4,a4,s4
 540:	00274603          	lbu	a2,2(a4)
      if(c0 == 'd'){
 544:	03878f63          	beq	a5,s8,582 <vprintf+0xba>
      } else if(c0 == 'l' && c1 == 'd'){
 548:	05978963          	beq	a5,s9,59a <vprintf+0xd2>
        printint(fd, va_arg(ap, uint64), 10, 1);
        i += 1;
      } else if(c0 == 'l' && c1 == 'l' && c2 == 'd'){
        printint(fd, va_arg(ap, uint64), 10, 1);
        i += 2;
      } else if(c0 == 'u'){
 54c:	07500713          	li	a4,117
 550:	0ee78363          	beq	a5,a4,636 <vprintf+0x16e>
        printint(fd, va_arg(ap, uint64), 10, 0);
        i += 1;
      } else if(c0 == 'l' && c1 == 'l' && c2 == 'u'){
        printint(fd, va_arg(ap, uint64), 10, 0);
        i += 2;
      } else if(c0 == 'x'){
 554:	07800713          	li	a4,120
 558:	12e78563          	beq	a5,a4,682 <vprintf+0x1ba>
        printint(fd, va_arg(ap, uint64), 16, 0);
        i += 1;
      } else if(c0 == 'l' && c1 == 'l' && c2 == 'x'){
        printint(fd, va_arg(ap, uint64), 16, 0);
        i += 2;
      } else if(c0 == 'p'){
 55c:	07000713          	li	a4,112
 560:	14e78a63          	beq	a5,a4,6b4 <vprintf+0x1ec>
        printptr(fd, va_arg(ap, uint64));
      } else if(c0 == 's'){
 564:	07300713          	li	a4,115
 568:	18e78a63          	beq	a5,a4,6fc <vprintf+0x234>
        if((s = va_arg(ap, char*)) == 0)
          s = "(null)";
        for(; *s; s++)
          putc(fd, *s);
      } else if(c0 == '%'){
 56c:	02500713          	li	a4,37
 570:	04e79563          	bne	a5,a4,5ba <vprintf+0xf2>
        putc(fd, '%');
 574:	02500593          	li	a1,37
 578:	855a                	mv	a0,s6
 57a:	e89ff0ef          	jal	402 <putc>
        // Unknown % sequence.  Print it to draw attention.
        putc(fd, '%');
        putc(fd, c);
      }
#endif
      state = 0;
 57e:	4981                	li	s3,0
 580:	bf49                	j	512 <vprintf+0x4a>
        printint(fd, va_arg(ap, int), 10, 1);
 582:	008b8913          	addi	s2,s7,8
 586:	4685                	li	a3,1
 588:	4629                	li	a2,10
 58a:	000ba583          	lw	a1,0(s7)
 58e:	855a                	mv	a0,s6
 590:	e91ff0ef          	jal	420 <printint>
 594:	8bca                	mv	s7,s2
      state = 0;
 596:	4981                	li	s3,0
 598:	bfad                	j	512 <vprintf+0x4a>
      } else if(c0 == 'l' && c1 == 'd'){
 59a:	06400793          	li	a5,100
 59e:	02f68963          	beq	a3,a5,5d0 <vprintf+0x108>
      } else if(c0 == 'l' && c1 == 'l' && c2 == 'd'){
 5a2:	06c00793          	li	a5,108
 5a6:	04f68263          	beq	a3,a5,5ea <vprintf+0x122>
      } else if(c0 == 'l' && c1 == 'u'){
 5aa:	07500793          	li	a5,117
 5ae:	0af68063          	beq	a3,a5,64e <vprintf+0x186>
      } else if(c0 == 'l' && c1 == 'x'){
 5b2:	07800793          	li	a5,120
 5b6:	0ef68263          	beq	a3,a5,69a <vprintf+0x1d2>
        putc(fd, '%');
 5ba:	02500593          	li	a1,37
 5be:	855a                	mv	a0,s6
 5c0:	e43ff0ef          	jal	402 <putc>
        putc(fd, c0);
 5c4:	85ca                	mv	a1,s2
 5c6:	855a                	mv	a0,s6
 5c8:	e3bff0ef          	jal	402 <putc>
      state = 0;
 5cc:	4981                	li	s3,0
 5ce:	b791                	j	512 <vprintf+0x4a>
        printint(fd, va_arg(ap, uint64), 10, 1);
 5d0:	008b8913          	addi	s2,s7,8
 5d4:	4685                	li	a3,1
 5d6:	4629                	li	a2,10
 5d8:	000ba583          	lw	a1,0(s7)
 5dc:	855a                	mv	a0,s6
 5de:	e43ff0ef          	jal	420 <printint>
        i += 1;
 5e2:	2485                	addiw	s1,s1,1
        printint(fd, va_arg(ap, uint64), 10, 1);
 5e4:	8bca                	mv	s7,s2
      state = 0;
 5e6:	4981                	li	s3,0
        i += 1;
 5e8:	b72d                	j	512 <vprintf+0x4a>
      } else if(c0 == 'l' && c1 == 'l' && c2 == 'd'){
 5ea:	06400793          	li	a5,100
 5ee:	02f60763          	beq	a2,a5,61c <vprintf+0x154>
      } else if(c0 == 'l' && c1 == 'l' && c2 == 'u'){
 5f2:	07500793          	li	a5,117
 5f6:	06f60963          	beq	a2,a5,668 <vprintf+0x1a0>
      } else if(c0 == 'l' && c1 == 'l' && c2 == 'x'){
 5fa:	07800793          	li	a5,120
 5fe:	faf61ee3          	bne	a2,a5,5ba <vprintf+0xf2>
        printint(fd, va_arg(ap, uint64), 16, 0);
 602:	008b8913          	addi	s2,s7,8
 606:	4681                	li	a3,0
 608:	4641                	li	a2,16
 60a:	000ba583          	lw	a1,0(s7)
 60e:	855a                	mv	a0,s6
 610:	e11ff0ef          	jal	420 <printint>
        i += 2;
 614:	2489                	addiw	s1,s1,2
        printint(fd, va_arg(ap, uint64), 16, 0);
 616:	8bca                	mv	s7,s2
      state = 0;
 618:	4981                	li	s3,0
        i += 2;
 61a:	bde5                	j	512 <vprintf+0x4a>
        printint(fd, va_arg(ap, uint64), 10, 1);
 61c:	008b8913          	addi	s2,s7,8
 620:	4685                	li	a3,1
 622:	4629                	li	a2,10
 624:	000ba583          	lw	a1,0(s7)
 628:	855a                	mv	a0,s6
 62a:	df7ff0ef          	jal	420 <printint>
        i += 2;
 62e:	2489                	addiw	s1,s1,2
        printint(fd, va_arg(ap, uint64), 10, 1);
 630:	8bca                	mv	s7,s2
      state = 0;
 632:	4981                	li	s3,0
        i += 2;
 634:	bdf9                	j	512 <vprintf+0x4a>
        printint(fd, va_arg(ap, int), 10, 0);
 636:	008b8913          	addi	s2,s7,8
 63a:	4681                	li	a3,0
 63c:	4629                	li	a2,10
 63e:	000ba583          	lw	a1,0(s7)
 642:	855a                	mv	a0,s6
 644:	dddff0ef          	jal	420 <printint>
 648:	8bca                	mv	s7,s2
      state = 0;
 64a:	4981                	li	s3,0
 64c:	b5d9                	j	512 <vprintf+0x4a>
        printint(fd, va_arg(ap, uint64), 10, 0);
 64e:	008b8913          	addi	s2,s7,8
 652:	4681                	li	a3,0
 654:	4629                	li	a2,10
 656:	000ba583          	lw	a1,0(s7)
 65a:	855a                	mv	a0,s6
 65c:	dc5ff0ef          	jal	420 <printint>
        i += 1;
 660:	2485                	addiw	s1,s1,1
        printint(fd, va_arg(ap, uint64), 10, 0);
 662:	8bca                	mv	s7,s2
      state = 0;
 664:	4981                	li	s3,0
        i += 1;
 666:	b575                	j	512 <vprintf+0x4a>
        printint(fd, va_arg(ap, uint64), 10, 0);
 668:	008b8913          	addi	s2,s7,8
 66c:	4681                	li	a3,0
 66e:	4629                	li	a2,10
 670:	000ba583          	lw	a1,0(s7)
 674:	855a                	mv	a0,s6
 676:	dabff0ef          	jal	420 <printint>
        i += 2;
 67a:	2489                	addiw	s1,s1,2
        printint(fd, va_arg(ap, uint64), 10, 0);
 67c:	8bca                	mv	s7,s2
      state = 0;
 67e:	4981                	li	s3,0
        i += 2;
 680:	bd49                	j	512 <vprintf+0x4a>
        printint(fd, va_arg(ap, int), 16, 0);
 682:	008b8913          	addi	s2,s7,8
 686:	4681                	li	a3,0
 688:	4641                	li	a2,16
 68a:	000ba583          	lw	a1,0(s7)
 68e:	855a                	mv	a0,s6
 690:	d91ff0ef          	jal	420 <printint>
 694:	8bca                	mv	s7,s2
      state = 0;
 696:	4981                	li	s3,0
 698:	bdad                	j	512 <vprintf+0x4a>
        printint(fd, va_arg(ap, uint64), 16, 0);
 69a:	008b8913          	addi	s2,s7,8
 69e:	4681                	li	a3,0
 6a0:	4641                	li	a2,16
 6a2:	000ba583          	lw	a1,0(s7)
 6a6:	855a                	mv	a0,s6
 6a8:	d79ff0ef          	jal	420 <printint>
        i += 1;
 6ac:	2485                	addiw	s1,s1,1
        printint(fd, va_arg(ap, uint64), 16, 0);
 6ae:	8bca                	mv	s7,s2
      state = 0;
 6b0:	4981                	li	s3,0
        i += 1;
 6b2:	b585                	j	512 <vprintf+0x4a>
 6b4:	e06a                	sd	s10,0(sp)
        printptr(fd, va_arg(ap, uint64));
 6b6:	008b8d13          	addi	s10,s7,8
 6ba:	000bb983          	ld	s3,0(s7)
  putc(fd, '0');
 6be:	03000593          	li	a1,48
 6c2:	855a                	mv	a0,s6
 6c4:	d3fff0ef          	jal	402 <putc>
  putc(fd, 'x');
 6c8:	07800593          	li	a1,120
 6cc:	855a                	mv	a0,s6
 6ce:	d35ff0ef          	jal	402 <putc>
 6d2:	4941                	li	s2,16
    putc(fd, digits[x >> (sizeof(uint64) * 8 - 4)]);
 6d4:	00000b97          	auipc	s7,0x0
 6d8:	2a4b8b93          	addi	s7,s7,676 # 978 <digits>
 6dc:	03c9d793          	srli	a5,s3,0x3c
 6e0:	97de                	add	a5,a5,s7
 6e2:	0007c583          	lbu	a1,0(a5)
 6e6:	855a                	mv	a0,s6
 6e8:	d1bff0ef          	jal	402 <putc>
  for (i = 0; i < (sizeof(uint64) * 2); i++, x <<= 4)
 6ec:	0992                	slli	s3,s3,0x4
 6ee:	397d                	addiw	s2,s2,-1
 6f0:	fe0916e3          	bnez	s2,6dc <vprintf+0x214>
        printptr(fd, va_arg(ap, uint64));
 6f4:	8bea                	mv	s7,s10
      state = 0;
 6f6:	4981                	li	s3,0
 6f8:	6d02                	ld	s10,0(sp)
 6fa:	bd21                	j	512 <vprintf+0x4a>
        if((s = va_arg(ap, char*)) == 0)
 6fc:	008b8993          	addi	s3,s7,8
 700:	000bb903          	ld	s2,0(s7)
 704:	00090f63          	beqz	s2,722 <vprintf+0x25a>
        for(; *s; s++)
 708:	00094583          	lbu	a1,0(s2)
 70c:	c195                	beqz	a1,730 <vprintf+0x268>
          putc(fd, *s);
 70e:	855a                	mv	a0,s6
 710:	cf3ff0ef          	jal	402 <putc>
        for(; *s; s++)
 714:	0905                	addi	s2,s2,1
 716:	00094583          	lbu	a1,0(s2)
 71a:	f9f5                	bnez	a1,70e <vprintf+0x246>
        if((s = va_arg(ap, char*)) == 0)
 71c:	8bce                	mv	s7,s3
      state = 0;
 71e:	4981                	li	s3,0
 720:	bbcd                	j	512 <vprintf+0x4a>
          s = "(null)";
 722:	00000917          	auipc	s2,0x0
 726:	24e90913          	addi	s2,s2,590 # 970 <malloc+0x142>
        for(; *s; s++)
 72a:	02800593          	li	a1,40
 72e:	b7c5                	j	70e <vprintf+0x246>
        if((s = va_arg(ap, char*)) == 0)
 730:	8bce                	mv	s7,s3
      state = 0;
 732:	4981                	li	s3,0
 734:	bbf9                	j	512 <vprintf+0x4a>
 736:	64a6                	ld	s1,72(sp)
 738:	79e2                	ld	s3,56(sp)
 73a:	7a42                	ld	s4,48(sp)
 73c:	7aa2                	ld	s5,40(sp)
 73e:	7b02                	ld	s6,32(sp)
 740:	6be2                	ld	s7,24(sp)
 742:	6c42                	ld	s8,16(sp)
 744:	6ca2                	ld	s9,8(sp)
    }
  }
}
 746:	60e6                	ld	ra,88(sp)
 748:	6446                	ld	s0,80(sp)
 74a:	6906                	ld	s2,64(sp)
 74c:	6125                	addi	sp,sp,96
 74e:	8082                	ret

0000000000000750 <fprintf>:

void
fprintf(int fd, const char *fmt, ...)
{
 750:	715d                	addi	sp,sp,-80
 752:	ec06                	sd	ra,24(sp)
 754:	e822                	sd	s0,16(sp)
 756:	1000                	addi	s0,sp,32
 758:	e010                	sd	a2,0(s0)
 75a:	e414                	sd	a3,8(s0)
 75c:	e818                	sd	a4,16(s0)
 75e:	ec1c                	sd	a5,24(s0)
 760:	03043023          	sd	a6,32(s0)
 764:	03143423          	sd	a7,40(s0)
  va_list ap;

  va_start(ap, fmt);
 768:	fe843423          	sd	s0,-24(s0)
  vprintf(fd, fmt, ap);
 76c:	8622                	mv	a2,s0
 76e:	d5bff0ef          	jal	4c8 <vprintf>
}
 772:	60e2                	ld	ra,24(sp)
 774:	6442                	ld	s0,16(sp)
 776:	6161                	addi	sp,sp,80
 778:	8082                	ret

000000000000077a <printf>:

void
printf(const char *fmt, ...)
{
 77a:	711d                	addi	sp,sp,-96
 77c:	ec06                	sd	ra,24(sp)
 77e:	e822                	sd	s0,16(sp)
 780:	1000                	addi	s0,sp,32
 782:	e40c                	sd	a1,8(s0)
 784:	e810                	sd	a2,16(s0)
 786:	ec14                	sd	a3,24(s0)
 788:	f018                	sd	a4,32(s0)
 78a:	f41c                	sd	a5,40(s0)
 78c:	03043823          	sd	a6,48(s0)
 790:	03143c23          	sd	a7,56(s0)
  va_list ap;

  va_start(ap, fmt);
 794:	00840613          	addi	a2,s0,8
 798:	fec43423          	sd	a2,-24(s0)
  vprintf(1, fmt, ap);
 79c:	85aa                	mv	a1,a0
 79e:	4505                	li	a0,1
 7a0:	d29ff0ef          	jal	4c8 <vprintf>
}
 7a4:	60e2                	ld	ra,24(sp)
 7a6:	6442                	ld	s0,16(sp)
 7a8:	6125                	addi	sp,sp,96
 7aa:	8082                	ret

00000000000007ac <free>:
 7ac:	1141                	addi	sp,sp,-16
 7ae:	e422                	sd	s0,8(sp)
 7b0:	0800                	addi	s0,sp,16
 7b2:	ff050693          	addi	a3,a0,-16
 7b6:	00001797          	auipc	a5,0x1
 7ba:	84a7b783          	ld	a5,-1974(a5) # 1000 <freep>
 7be:	a02d                	j	7e8 <free+0x3c>
 7c0:	4618                	lw	a4,8(a2)
 7c2:	9f2d                	addw	a4,a4,a1
 7c4:	fee52c23          	sw	a4,-8(a0)
 7c8:	6398                	ld	a4,0(a5)
 7ca:	6310                	ld	a2,0(a4)
 7cc:	a83d                	j	80a <free+0x5e>
 7ce:	ff852703          	lw	a4,-8(a0)
 7d2:	9f31                	addw	a4,a4,a2
 7d4:	c798                	sw	a4,8(a5)
 7d6:	ff053683          	ld	a3,-16(a0)
 7da:	a091                	j	81e <free+0x72>
 7dc:	6398                	ld	a4,0(a5)
 7de:	00e7e463          	bltu	a5,a4,7e6 <free+0x3a>
 7e2:	00e6ea63          	bltu	a3,a4,7f6 <free+0x4a>
 7e6:	87ba                	mv	a5,a4
 7e8:	fed7fae3          	bgeu	a5,a3,7dc <free+0x30>
 7ec:	6398                	ld	a4,0(a5)
 7ee:	00e6e463          	bltu	a3,a4,7f6 <free+0x4a>
 7f2:	fee7eae3          	bltu	a5,a4,7e6 <free+0x3a>
 7f6:	ff852583          	lw	a1,-8(a0)
 7fa:	6390                	ld	a2,0(a5)
 7fc:	02059813          	slli	a6,a1,0x20
 800:	01c85713          	srli	a4,a6,0x1c
 804:	9736                	add	a4,a4,a3
 806:	fae60de3          	beq	a2,a4,7c0 <free+0x14>
 80a:	fec53823          	sd	a2,-16(a0)
 80e:	4790                	lw	a2,8(a5)
 810:	02061593          	slli	a1,a2,0x20
 814:	01c5d713          	srli	a4,a1,0x1c
 818:	973e                	add	a4,a4,a5
 81a:	fae68ae3          	beq	a3,a4,7ce <free+0x22>
 81e:	e394                	sd	a3,0(a5)
 820:	00000717          	auipc	a4,0x0
 824:	7ef73023          	sd	a5,2016(a4) # 1000 <freep>
 828:	6422                	ld	s0,8(sp)
 82a:	0141                	addi	sp,sp,16
 82c:	8082                	ret

000000000000082e <malloc>:
 82e:	7139                	addi	sp,sp,-64
 830:	fc06                	sd	ra,56(sp)
 832:	f822                	sd	s0,48(sp)
 834:	f426                	sd	s1,40(sp)
 836:	ec4e                	sd	s3,24(sp)
 838:	0080                	addi	s0,sp,64
 83a:	02051493          	slli	s1,a0,0x20
 83e:	9081                	srli	s1,s1,0x20
 840:	04bd                	addi	s1,s1,15
 842:	8091                	srli	s1,s1,0x4
 844:	0014899b          	addiw	s3,s1,1
 848:	0485                	addi	s1,s1,1
 84a:	00000517          	auipc	a0,0x0
 84e:	7b653503          	ld	a0,1974(a0) # 1000 <freep>
 852:	c915                	beqz	a0,886 <malloc+0x58>
 854:	611c                	ld	a5,0(a0)
 856:	4798                	lw	a4,8(a5)
 858:	08977a63          	bgeu	a4,s1,8ec <malloc+0xbe>
 85c:	f04a                	sd	s2,32(sp)
 85e:	e852                	sd	s4,16(sp)
 860:	e456                	sd	s5,8(sp)
 862:	e05a                	sd	s6,0(sp)
 864:	8a4e                	mv	s4,s3
 866:	0009871b          	sext.w	a4,s3
 86a:	6685                	lui	a3,0x1
 86c:	00d77363          	bgeu	a4,a3,872 <malloc+0x44>
 870:	6a05                	lui	s4,0x1
 872:	000a0b1b          	sext.w	s6,s4
 876:	004a1a1b          	slliw	s4,s4,0x4
 87a:	00000917          	auipc	s2,0x0
 87e:	78690913          	addi	s2,s2,1926 # 1000 <freep>
 882:	5afd                	li	s5,-1
 884:	a081                	j	8c4 <malloc+0x96>
 886:	f04a                	sd	s2,32(sp)
 888:	e852                	sd	s4,16(sp)
 88a:	e456                	sd	s5,8(sp)
 88c:	e05a                	sd	s6,0(sp)
 88e:	00000797          	auipc	a5,0x0
 892:	78278793          	addi	a5,a5,1922 # 1010 <base>
 896:	00000717          	auipc	a4,0x0
 89a:	76f73523          	sd	a5,1898(a4) # 1000 <freep>
 89e:	e39c                	sd	a5,0(a5)
 8a0:	0007a423          	sw	zero,8(a5)
 8a4:	b7c1                	j	864 <malloc+0x36>
 8a6:	6398                	ld	a4,0(a5)
 8a8:	e118                	sd	a4,0(a0)
 8aa:	a8a9                	j	904 <malloc+0xd6>
 8ac:	01652423          	sw	s6,8(a0)
 8b0:	0541                	addi	a0,a0,16
 8b2:	efbff0ef          	jal	7ac <free>
 8b6:	00093503          	ld	a0,0(s2)
 8ba:	c12d                	beqz	a0,91c <malloc+0xee>
 8bc:	611c                	ld	a5,0(a0)
 8be:	4798                	lw	a4,8(a5)
 8c0:	02977263          	bgeu	a4,s1,8e4 <malloc+0xb6>
 8c4:	00093703          	ld	a4,0(s2)
 8c8:	853e                	mv	a0,a5
 8ca:	fef719e3          	bne	a4,a5,8bc <malloc+0x8e>
 8ce:	8552                	mv	a0,s4
 8d0:	afbff0ef          	jal	3ca <sbrk>
 8d4:	fd551ce3          	bne	a0,s5,8ac <malloc+0x7e>
 8d8:	4501                	li	a0,0
 8da:	7902                	ld	s2,32(sp)
 8dc:	6a42                	ld	s4,16(sp)
 8de:	6aa2                	ld	s5,8(sp)
 8e0:	6b02                	ld	s6,0(sp)
 8e2:	a03d                	j	910 <malloc+0xe2>
 8e4:	7902                	ld	s2,32(sp)
 8e6:	6a42                	ld	s4,16(sp)
 8e8:	6aa2                	ld	s5,8(sp)
 8ea:	6b02                	ld	s6,0(sp)
 8ec:	fae48de3          	beq	s1,a4,8a6 <malloc+0x78>
 8f0:	4137073b          	subw	a4,a4,s3
 8f4:	c798                	sw	a4,8(a5)
 8f6:	02071693          	slli	a3,a4,0x20
 8fa:	01c6d713          	srli	a4,a3,0x1c
 8fe:	97ba                	add	a5,a5,a4
 900:	0137a423          	sw	s3,8(a5)
 904:	00000717          	auipc	a4,0x0
 908:	6ea73e23          	sd	a0,1788(a4) # 1000 <freep>
 90c:	01078513          	addi	a0,a5,16
 910:	70e2                	ld	ra,56(sp)
 912:	7442                	ld	s0,48(sp)
 914:	74a2                	ld	s1,40(sp)
 916:	69e2                	ld	s3,24(sp)
 918:	6121                	addi	sp,sp,64
 91a:	8082                	ret
 91c:	7902                	ld	s2,32(sp)
 91e:	6a42                	ld	s4,16(sp)
 920:	6aa2                	ld	s5,8(sp)
 922:	6b02                	ld	s6,0(sp)
 924:	b7f5                	j	910 <malloc+0xe2>
